target datalayout = "e-m:e-p270:32:32-p271:32:32-p272:64:64-i64:64-i128:128-f80:128-n8:16:32:64-S128"
target triple = "x86_64-pc-linux-gnu"

; Function Attrs: inlinehint nounwind uwtable
define internal i32 @constant_time_msb_32(i32 noundef %0) #3 {
  %2 = alloca i32, align 4
  store i32 %0, ptr %2, align 4, !tbaa !14
  %3 = load i32, ptr %2, align 4, !tbaa !14
  %4 = lshr i32 %3, 31
  %5 = sub i32 0, %4
  ret i32 %5
}

; Function Attrs: inlinehint nounwind uwtable
define internal i32 @constant_time_select_32(i32 noundef %0, i32 noundef %1, i32 noundef %2) #3 {
  %4 = alloca i32, align 4
  %5 = alloca i32, align 4
  %6 = alloca i32, align 4
  store i32 %0, ptr %4, align 4, !tbaa !14
  store i32 %1, ptr %5, align 4, !tbaa !14
  store i32 %2, ptr %6, align 4, !tbaa !14
  %7 = load i32, ptr %4, align 4, !tbaa !14
  %8 = call i32 @value_barrier_32(i32 noundef %7)
  %9 = load i32, ptr %5, align 4, !tbaa !14
  %10 = and i32 %8, %9
  %11 = load i32, ptr %4, align 4, !tbaa !14
  %12 = xor i32 %11, -1
  %13 = call i32 @value_barrier_32(i32 noundef %12)
  %14 = load i32, ptr %6, align 4, !tbaa !14
  %15 = and i32 %13, %14
  %16 = or i32 %10, %15
  ret i32 %16
}

; Function Attrs: inlinehint nounwind uwtable
define internal i32 @constant_time_lt_32(i32 noundef %0, i32 noundef %1) #3 {
  %3 = alloca i32, align 4
  %4 = alloca i32, align 4
  store i32 %0, ptr %3, align 4, !tbaa !14
  store i32 %1, ptr %4, align 4, !tbaa !14
  %5 = load i32, ptr %3, align 4, !tbaa !14
  %6 = load i32, ptr %3, align 4, !tbaa !14
  %7 = load i32, ptr %4, align 4, !tbaa !14
  %8 = xor i32 %6, %7
  %9 = load i32, ptr %3, align 4, !tbaa !14
  %10 = load i32, ptr %4, align 4, !tbaa !14
  %11 = sub i32 %9, %10
  %12 = load i32, ptr %4, align 4, !tbaa !14
  %13 = xor i32 %11, %12
  %14 = or i32 %8, %13
  %15 = xor i32 %5, %14
  %16 = call i32 @constant_time_msb_32(i32 noundef %15)
  ret i32 %16
}

; Function Attrs: inlinehint nounwind uwtable
define internal i32 @reduce_once(i32 noundef %0) #3 {
  %2 = alloca i32, align 4
  store i32 %0, ptr %2, align 4, !tbaa !14
  %3 = load i32, ptr %2, align 4, !tbaa !14
  %4 = call i32 @constant_time_lt_32(i32 noundef %3, i32 noundef 8380417)
  %5 = load i32, ptr %2, align 4, !tbaa !14
  %6 = load i32, ptr %2, align 4, !tbaa !14
  %7 = sub i32 %6, 8380417
  %8 = call i32 @constant_time_select_32(i32 noundef %4, i32 noundef %5, i32 noundef %7)
  ret i32 %8
}

; Function Attrs: inlinehint nounwind uwtable
define internal i32 @mod_sub(i32 noundef %0, i32 noundef %1) #3 {
  %3 = alloca i32, align 4
  %4 = alloca i32, align 4
  store i32 %0, ptr %3, align 4, !tbaa !14
  store i32 %1, ptr %4, align 4, !tbaa !14
  %5 = load i32, ptr %3, align 4, !tbaa !14
  %6 = add i32 8380417, %5
  %7 = load i32, ptr %4, align 4, !tbaa !14
  %8 = sub i32 %6, %7
  %9 = call i32 @reduce_once(i32 noundef %8)
  ret i32 %9
}

; Function Attrs: inlinehint nounwind uwtable
define internal i32 @value_barrier_32(i32 noundef %0) #3 {
  %2 = alloca i32, align 4
  %3 = alloca i32, align 4
  store i32 %0, ptr %2, align 4, !tbaa !14
  call void @llvm.lifetime.start.p0(i64 4, ptr %3) #6
  %4 = load i32, ptr %2, align 4, !tbaa !14
  %5 = call i32 asm "", "=r,0,~{dirflag},~{fpsr},~{flags}"(i32 %4) #7, !srcloc !43
  store i32 %5, ptr %3, align 4, !tbaa !14
  %6 = load i32, ptr %3, align 4, !tbaa !14
  call void @llvm.lifetime.end.p0(i64 4, ptr %3) #6
  ret i32 %6
}

; Function Attrs: inlinehint nounwind uwtable
define internal i32 @coeff_from_nibble_4(i32 noundef %0, ptr noundef %1) #3 {
  %3 = alloca i32, align 4
  %4 = alloca i32, align 4
  %5 = alloca ptr, align 8
  store i32 %0, ptr %4, align 4, !tbaa !14
  store ptr %1, ptr %5, align 8, !tbaa !37
  %6 = load i32, ptr %4, align 4, !tbaa !14
  %7 = icmp ult i32 %6, 9
  %8 = zext i1 %7 to i32
  %9 = call i32 @value_barrier_32(i32 noundef %8)
  %10 = icmp ne i32 %9, 0
  br i1 %10, label %11, label %15

11:                                               ; preds = %2
  %12 = load i32, ptr %4, align 4, !tbaa !14
  %13 = call i32 @mod_sub(i32 noundef 4, i32 noundef %12)
  %14 = load ptr, ptr %5, align 8, !tbaa !37
  store i32 %13, ptr %14, align 4, !tbaa !14
  store i32 1, ptr %3, align 4
  br label %16

15:                                               ; preds = %2
  store i32 0, ptr %3, align 4
  br label %16

16:                                               ; preds = %15, %11
  %17 = load i32, ptr %3, align 4
  ret i32 %17
}