; Function Attrs: inlinehint nounwind memory(argmem: write) uwtable
define internal range(i32 0, 2) i32 @coeff_from_nibble_4(i32 noundef %0, ptr noundef writeonly captures(none) %1) #3 {
  %3 = icmp ult i32 %0, 9
  %4 = zext i1 %3 to i32
  %5 = tail call i32 asm "", "=r,0,~{dirflag},~{fpsr},~{flags}"(i32 range(i32 -1, 2) %4) #7, !srcloc !25
  %.not = icmp eq i32 %5, 0
  br i1 %.not, label %17, label %6

6:                                                ; preds = %2
  %7 = sub i32 8380421, %0
  %8 = sub i32 4, %0
  %9 = add i32 %0, -8380422
  %10 = and i32 %8, %9
  %.neg.i.i.i.i = ashr i32 %10, 31
  %11 = tail call i32 asm "", "=r,0,~{dirflag},~{fpsr},~{flags}"(i32 range(i32 -1, 1) %.neg.i.i.i.i) #7, !srcloc !25
  %12 = and i32 %11, %7
  %13 = xor i32 %.neg.i.i.i.i, -1
  %14 = tail call i32 asm "", "=r,0,~{dirflag},~{fpsr},~{flags}"(i32 range(i32 -1, 2) %13) #7, !srcloc !25
  %15 = and i32 %14, %8
  %16 = or i32 %15, %12
  store i32 %16, ptr %1, align 4, !tbaa !13
  br label %17

17:                                               ; preds = %2, %6
  %.0 = phi i32 [ 1, %6 ], [ 0, %2 ]
  ret i32 %.0
}